target datalayout = "e-m:e-p270:32:32-p271:32:32-p272:64:64-i64:64-i128:128-f80:128-n8:16:32:64-S128"
target triple = "x86_64-unknown-linux-gnu"

%"struct.std::_Vector_base.23" = type { %"struct.std::_Vector_base<arrow::TypeHolder, std::allocator<arrow::TypeHolder>>::_Vector_impl" }
%"struct.std::_Vector_base<arrow::TypeHolder, std::allocator<arrow::TypeHolder>>::_Vector_impl" = type { %"struct.std::_Vector_base<arrow::TypeHolder, std::allocator<arrow::TypeHolder>>::_Vector_impl_data" }
%"struct.std::_Vector_base<arrow::TypeHolder, std::allocator<arrow::TypeHolder>>::_Vector_impl_data" = type { ptr, ptr, ptr }

; Function Attrs: mustprogress nounwind uwtable
define linkonce_odr noundef ptr @_ZNKSt6vectorIN5arrow10TypeHolderESaIS1_EE11_M_data_ptrIS1_EEPT_S6_(ptr noundef nonnull align 8 dereferenceable(24) %this, ptr noundef %__ptr) #4 comdat align 2 {
entry:
  %this.addr = alloca ptr, align 8
  %__ptr.addr = alloca ptr, align 8
  store ptr %this, ptr %this.addr, align 8
  store ptr %__ptr, ptr %__ptr.addr, align 8
  %0 = load ptr, ptr %__ptr.addr, align 8
  ret ptr %0
}

; Function Attrs: mustprogress nounwind uwtable
define linkonce_odr noundef i64 @_ZNKSt6vectorIN5arrow10TypeHolderESaIS1_EE4sizeEv(ptr noundef nonnull align 8 dereferenceable(24) %this) #4 comdat align 2 {
entry:
  %this.addr = alloca ptr, align 8
  store ptr %this, ptr %this.addr, align 8
  %this1 = load ptr, ptr %this.addr, align 8
  %_M_impl = getelementptr inbounds %"struct.std::_Vector_base.23", ptr %this1, i32 0, i32 0
  %_M_finish = getelementptr inbounds %"struct.std::_Vector_base<arrow::TypeHolder, std::allocator<arrow::TypeHolder>>::_Vector_impl_data", ptr %_M_impl, i32 0, i32 1
  %0 = load ptr, ptr %_M_finish, align 8
  %_M_impl2 = getelementptr inbounds %"struct.std::_Vector_base.23", ptr %this1, i32 0, i32 0
  %_M_start = getelementptr inbounds %"struct.std::_Vector_base<arrow::TypeHolder, std::allocator<arrow::TypeHolder>>::_Vector_impl_data", ptr %_M_impl2, i32 0, i32 0
  %1 = load ptr, ptr %_M_start, align 8
  %sub.ptr.lhs.cast = ptrtoint ptr %0 to i64
  %sub.ptr.rhs.cast = ptrtoint ptr %1 to i64
  %sub.ptr.sub = sub i64 %sub.ptr.lhs.cast, %sub.ptr.rhs.cast
  %sub.ptr.div = sdiv exact i64 %sub.ptr.sub, 24
  ret i64 %sub.ptr.div
}

; Function Attrs: mustprogress nounwind uwtable
define linkonce_odr noundef ptr @_ZNSt6vectorIN5arrow10TypeHolderESaIS1_EE4dataEv(ptr noundef nonnull align 8 dereferenceable(24) %this) #4 comdat align 2 {
entry:
  %this.addr = alloca ptr, align 8
  store ptr %this, ptr %this.addr, align 8
  %this1 = load ptr, ptr %this.addr, align 8
  %_M_impl = getelementptr inbounds %"struct.std::_Vector_base.23", ptr %this1, i32 0, i32 0
  %_M_start = getelementptr inbounds %"struct.std::_Vector_base<arrow::TypeHolder, std::allocator<arrow::TypeHolder>>::_Vector_impl_data", ptr %_M_impl, i32 0, i32 0
  %0 = load ptr, ptr %_M_start, align 8
  %call = call noundef ptr @_ZNKSt6vectorIN5arrow10TypeHolderESaIS1_EE11_M_data_ptrIS1_EEPT_S6_(ptr noundef nonnull align 8 dereferenceable(24) %this1, ptr noundef %0) #1
  ret ptr %call
}

; Function Attrs: mustprogress uwtable
define void @_ZN5arrow7compute8internal12ReplaceTypesERKNS_10TypeHolderEPSt6vectorIS2_SaIS2_EE(ptr noundef nonnull align 8 dereferenceable(24) %replacement, ptr noundef %types) #0 {
entry:
  %replacement.addr = alloca ptr, align 8
  %types.addr = alloca ptr, align 8
  store ptr %replacement, ptr %replacement.addr, align 8
  store ptr %types, ptr %types.addr, align 8
  %0 = load ptr, ptr %replacement.addr, align 8
  %1 = load ptr, ptr %types.addr, align 8
  %call = call noundef ptr @_ZNSt6vectorIN5arrow10TypeHolderESaIS1_EE4dataEv(ptr noundef nonnull align 8 dereferenceable(24) %1) #1
  %2 = load ptr, ptr %types.addr, align 8
  %call1 = call noundef i64 @_ZNKSt6vectorIN5arrow10TypeHolderESaIS1_EE4sizeEv(ptr noundef nonnull align 8 dereferenceable(24) %2) #1
  call void @_ZN5arrow7compute8internal12ReplaceTypesERKNS_10TypeHolderEPS2_m(ptr noundef nonnull align 8 dereferenceable(24) %0, ptr noundef %call, i64 noundef %call1)
  ret void
}