; Function Attrs: mustprogress nounwind uwtable
define void @_ZN5arrow7compute8internal12ReplaceTypesERKNS_10TypeHolderEPSt6vectorIS2_SaIS2_EE(ptr noundef nonnull readonly align 8 captures(none) dereferenceable(24) %replacement, ptr noundef readonly captures(none) %types) local_unnamed_addr #5 {
entry:
  %0 = load ptr, ptr %types, align 8
  %_M_finish.i = getelementptr inbounds nuw i8, ptr %types, i64 8
  %1 = load ptr, ptr %_M_finish.i, align 8
  %sub.ptr.lhs.cast.i = ptrtoint ptr %1 to i64
  %sub.ptr.rhs.cast.i = ptrtoint ptr %0 to i64
  %sub.ptr.sub.i = sub i64 %sub.ptr.lhs.cast.i, %sub.ptr.rhs.cast.i
  %sub.ptr.div.i = sdiv exact i64 %sub.ptr.sub.i, 24
  tail call void @_ZN5arrow7compute8internal12ReplaceTypesERKNS_10TypeHolderEPS2_m(ptr noundef nonnull align 8 dereferenceable(24) %replacement, ptr noundef %0, i64 noundef %sub.ptr.div.i)
  ret void
}